; Function Attrs: mustprogress uwtable
define hidden void @_ZNK7Decolor18singleChannelGradxERKN2cv3MatERS1_(ptr noundef nonnull align 8 dereferenceable(200) %0, ptr noundef nonnull align 8 dereferenceable(96) %1, ptr noundef nonnull align 8 dereferenceable(96) %2) local_unnamed_addr #0 align 2 personality ptr @__gxx_personality_v0 {
  %4 = alloca %"class.cv::Range", align 8
  %5 = alloca %"class.cv::Range", align 4
  %6 = alloca %"class.cv::_InputArray", align 8
  %7 = alloca %"class.cv::_OutputArray", align 8
  %8 = alloca %"class.cv::_InputArray", align 8
  %9 = alloca %"class.cv::Scalar_", align 8
  %10 = alloca %"class.cv::Mat", align 8
  %11 = getelementptr inbounds nuw i8, ptr %1, i64 64
  %12 = load ptr, ptr %11, align 8, !tbaa !47
  %13 = getelementptr inbounds nuw i8, ptr %12, i64 4
  %14 = load i32, ptr %13, align 4, !tbaa !31
  %15 = getelementptr inbounds nuw i8, ptr %0, i64 12
  %16 = load i32, ptr %15, align 4, !tbaa !48
  %.neg = sdiv i32 %16, -2
  %17 = add i32 %16, -1
  %18 = add i32 %17, %.neg
  %19 = getelementptr inbounds nuw i8, ptr %0, i64 8
  %20 = load i32, ptr %19, align 8, !tbaa !49
  %.neg11 = sdiv i32 %20, -2
  %21 = add i32 %20, -1
  %22 = add i32 %21, %.neg11
  call void @llvm.lifetime.start.p0(i64 24, ptr nonnull %6) #23
  %23 = getelementptr inbounds nuw i8, ptr %6, i64 16
  store i32 0, ptr %23, align 8, !tbaa !50
  %24 = getelementptr inbounds nuw i8, ptr %6, i64 20
  store i32 0, ptr %24, align 4, !tbaa !52
  store i32 16842752, ptr %6, align 8, !tbaa !53
  %25 = getelementptr inbounds nuw i8, ptr %6, i64 8
  store ptr %1, ptr %25, align 8, !tbaa !55
  call void @llvm.lifetime.start.p0(i64 24, ptr nonnull %7) #23
  %26 = getelementptr inbounds nuw i8, ptr %7, i64 8
  %27 = getelementptr inbounds nuw i8, ptr %7, i64 16
  store i64 0, ptr %27, align 8
  store i32 33619968, ptr %7, align 8, !tbaa !53
  store ptr %2, ptr %26, align 8, !tbaa !55
  call void @llvm.lifetime.start.p0(i64 24, ptr nonnull %8) #23
  %28 = getelementptr inbounds nuw i8, ptr %8, i64 16
  store i32 0, ptr %28, align 8, !tbaa !50
  %29 = getelementptr inbounds nuw i8, ptr %8, i64 20
  store i32 0, ptr %29, align 4, !tbaa !52
  store i32 16842752, ptr %8, align 8, !tbaa !53
  %30 = getelementptr inbounds nuw i8, ptr %8, i64 8
  store ptr %0, ptr %30, align 8, !tbaa !55
  %.sroa.5.0.insert.ext = zext i32 %22 to i64
  %.sroa.5.0.insert.shift = shl nuw i64 %.sroa.5.0.insert.ext, 32
  %.sroa.0.0.insert.ext = zext i32 %18 to i64
  %.sroa.0.0.insert.insert = or disjoint i64 %.sroa.5.0.insert.shift, %.sroa.0.0.insert.ext
  call void @_ZN2cv8filter2DERKNS_11_InputArrayERKNS_12_OutputArrayEiS2_NS_6Point_IiEEdi(ptr noundef nonnull align 8 dereferenceable(24) %6, ptr noundef nonnull align 8 dereferenceable(24) %7, i32 noundef -1, ptr noundef nonnull align 8 dereferenceable(24) %8, i64 %.sroa.0.0.insert.insert, double noundef 0.000000e+00, i32 noundef 0)
  call void @llvm.lifetime.end.p0(i64 24, ptr nonnull %8) #23
  call void @llvm.lifetime.end.p0(i64 24, ptr nonnull %7) #23
  call void @llvm.lifetime.end.p0(i64 24, ptr nonnull %6) #23
  call void @llvm.lifetime.start.p0(i64 32, ptr nonnull %9) #23
  call void @llvm.memset.p0.i64(ptr noundef nonnull align 8 dereferenceable(32) %9, i8 0, i64 32, i1 false)
  call void @llvm.lifetime.start.p0(i64 96, ptr nonnull %10) #23
  %31 = add nsw i32 %14, -1
  call void @llvm.lifetime.start.p0(i64 8, ptr nonnull %4) #23, !noalias !56
  store i64 9223372034707292160, ptr %4, align 8, !noalias !56
  call void @llvm.lifetime.start.p0(i64 8, ptr nonnull %5) #23, !noalias !56
  store i32 %31, ptr %5, align 4, !tbaa !59, !noalias !56
  %32 = getelementptr inbounds nuw i8, ptr %5, i64 4
  store i32 %14, ptr %32, align 4, !tbaa !61, !noalias !56
  call void @_ZN2cv3MatC1ERKS0_RKNS_5RangeES5_(ptr noundef nonnull align 8 dereferenceable(96) %10, ptr noundef nonnull align 8 dereferenceable(96) %2, ptr noundef nonnull align 4 dereferenceable(8) %4, ptr noundef nonnull align 4 dereferenceable(8) %5)
  call void @llvm.lifetime.end.p0(i64 8, ptr nonnull %5) #23, !noalias !56
  call void @llvm.lifetime.end.p0(i64 8, ptr nonnull %4) #23, !noalias !56
  %33 = invoke noundef nonnull align 8 dereferenceable(96) ptr @_ZN2cv3MataSERKNS_7Scalar_IdEE(ptr noundef nonnull align 8 dereferenceable(96) %10, ptr noundef nonnull align 8 dereferenceable(32) %9)
          to label %34 unwind label %35

34:                                               ; preds = %3
  call void @_ZN2cv3MatD1Ev(ptr noundef nonnull align 8 dereferenceable(96) %10) #23
  call void @llvm.lifetime.end.p0(i64 96, ptr nonnull %10) #23
  call void @llvm.lifetime.end.p0(i64 32, ptr nonnull %9) #23
  ret void

35:                                               ; preds = %3
  %36 = landingpad { ptr, i32 }
          cleanup
  call void @_ZN2cv3MatD1Ev(ptr noundef nonnull align 8 dereferenceable(96) %10) #23
  call void @llvm.lifetime.end.p0(i64 96, ptr nonnull %10) #23
  call void @llvm.lifetime.end.p0(i64 32, ptr nonnull %9) #23
  resume { ptr, i32 } %36
}